target datalayout = "e-m:e-p270:32:32-p271:32:32-p272:64:64-i64:64-i128:128-f80:128-n8:16:32:64-S128"
target triple = "x86_64-pc-linux-gnu"

%struct.X509_algor_st = type { ptr, ptr }
%struct.ocsp_cert_id_st = type { %struct.X509_algor_st, %struct.asn1_string_st, %struct.asn1_string_st, %struct.asn1_string_st }
%struct.asn1_string_st = type { i32, i32, ptr, i64 }

@.str.38 = private unnamed_addr constant [2 x i8] c"\0A\00", align 1
@.str.42 = private unnamed_addr constant [20 x i8] c"%*sCertificate ID:\0A\00", align 1
@.str.43 = private unnamed_addr constant [1 x i8] zeroinitializer, align 1
@.str.44 = private unnamed_addr constant [20 x i8] c"%*sHash Algorithm: \00", align 1
@.str.45 = private unnamed_addr constant [23 x i8] c"\0A%*sIssuer Name Hash: \00", align 1
@.str.46 = private unnamed_addr constant [22 x i8] c"\0A%*sIssuer Key Hash: \00", align 1
@.str.47 = private unnamed_addr constant [20 x i8] c"\0A%*sSerial Number: \00", align 1

; Function Attrs: nounwind uwtable
define internal i32 @ocsp_certid_print(ptr noundef %0, ptr noundef %1, i32 noundef %2) #0 {
  %4 = alloca ptr, align 8
  %5 = alloca ptr, align 8
  %6 = alloca i32, align 4
  store ptr %0, ptr %4, align 8, !tbaa !15
  store ptr %1, ptr %5, align 8, !tbaa !19
  store i32 %2, ptr %6, align 4, !tbaa !36
  %7 = load ptr, ptr %4, align 8, !tbaa !15
  %8 = load i32, ptr %6, align 4, !tbaa !36
  %9 = call i32 (ptr, ptr, ...) @BIO_printf(ptr noundef %7, ptr noundef @.str.42, i32 noundef %8, ptr noundef @.str.43)
  %10 = load i32, ptr %6, align 4, !tbaa !36
  %11 = add nsw i32 %10, 2
  store i32 %11, ptr %6, align 4, !tbaa !36
  %12 = load ptr, ptr %4, align 8, !tbaa !15
  %13 = load i32, ptr %6, align 4, !tbaa !36
  %14 = call i32 (ptr, ptr, ...) @BIO_printf(ptr noundef %12, ptr noundef @.str.44, i32 noundef %13, ptr noundef @.str.43)
  %15 = load ptr, ptr %4, align 8, !tbaa !15
  %16 = load ptr, ptr %5, align 8, !tbaa !19
  %17 = getelementptr inbounds nuw %struct.ocsp_cert_id_st, ptr %16, i32 0, i32 0
  %18 = getelementptr inbounds nuw %struct.X509_algor_st, ptr %17, i32 0, i32 0
  %19 = load ptr, ptr %18, align 8, !tbaa !53
  %20 = call i32 @i2a_ASN1_OBJECT(ptr noundef %15, ptr noundef %19)
  %21 = load ptr, ptr %4, align 8, !tbaa !15
  %22 = load i32, ptr %6, align 4, !tbaa !36
  %23 = call i32 (ptr, ptr, ...) @BIO_printf(ptr noundef %21, ptr noundef @.str.45, i32 noundef %22, ptr noundef @.str.43)
  %24 = load ptr, ptr %4, align 8, !tbaa !15
  %25 = load ptr, ptr %5, align 8, !tbaa !19
  %26 = getelementptr inbounds nuw %struct.ocsp_cert_id_st, ptr %25, i32 0, i32 1
  %27 = call i32 @i2a_ASN1_STRING(ptr noundef %24, ptr noundef %26, i32 noundef 0)
  %28 = load ptr, ptr %4, align 8, !tbaa !15
  %29 = load i32, ptr %6, align 4, !tbaa !36
  %30 = call i32 (ptr, ptr, ...) @BIO_printf(ptr noundef %28, ptr noundef @.str.46, i32 noundef %29, ptr noundef @.str.43)
  %31 = load ptr, ptr %4, align 8, !tbaa !15
  %32 = load ptr, ptr %5, align 8, !tbaa !19
  %33 = getelementptr inbounds nuw %struct.ocsp_cert_id_st, ptr %32, i32 0, i32 2
  %34 = call i32 @i2a_ASN1_STRING(ptr noundef %31, ptr noundef %33, i32 noundef 0)
  %35 = load ptr, ptr %4, align 8, !tbaa !15
  %36 = load i32, ptr %6, align 4, !tbaa !36
  %37 = call i32 (ptr, ptr, ...) @BIO_printf(ptr noundef %35, ptr noundef @.str.47, i32 noundef %36, ptr noundef @.str.43)
  %38 = load ptr, ptr %4, align 8, !tbaa !15
  %39 = load ptr, ptr %5, align 8, !tbaa !19
  %40 = getelementptr inbounds nuw %struct.ocsp_cert_id_st, ptr %39, i32 0, i32 3
  %41 = call i32 @i2a_ASN1_INTEGER(ptr noundef %38, ptr noundef %40)
  %42 = load ptr, ptr %4, align 8, !tbaa !15
  %43 = call i32 (ptr, ptr, ...) @BIO_printf(ptr noundef %42, ptr noundef @.str.38)
  ret i32 1
}