; Function Attrs: nounwind uwtable
define internal fastcc void @ocsp_certid_print(ptr noundef %0, ptr noundef %1, i32 noundef range(i32 4, 9) %2) unnamed_addr #1 {
  %4 = tail call i32 (ptr, ptr, ...) @BIO_printf(ptr noundef %0, ptr noundef nonnull @.str.42, i32 noundef %2, ptr noundef nonnull @.str.43) #3
  %5 = add nuw nsw i32 %2, 2
  %6 = tail call i32 (ptr, ptr, ...) @BIO_printf(ptr noundef %0, ptr noundef nonnull @.str.44, i32 noundef %5, ptr noundef nonnull @.str.43) #3
  %7 = load ptr, ptr %1, align 8, !tbaa !38
  %8 = tail call i32 @i2a_ASN1_OBJECT(ptr noundef %0, ptr noundef %7) #3
  %9 = tail call i32 (ptr, ptr, ...) @BIO_printf(ptr noundef %0, ptr noundef nonnull @.str.45, i32 noundef %5, ptr noundef nonnull @.str.43) #3
  %10 = getelementptr inbounds nuw i8, ptr %1, i64 16
  %11 = tail call i32 @i2a_ASN1_STRING(ptr noundef %0, ptr noundef nonnull %10, i32 noundef 0) #3
  %12 = tail call i32 (ptr, ptr, ...) @BIO_printf(ptr noundef %0, ptr noundef nonnull @.str.46, i32 noundef %5, ptr noundef nonnull @.str.43) #3
  %13 = getelementptr inbounds nuw i8, ptr %1, i64 40
  %14 = tail call i32 @i2a_ASN1_STRING(ptr noundef %0, ptr noundef nonnull %13, i32 noundef 0) #3
  %15 = tail call i32 (ptr, ptr, ...) @BIO_printf(ptr noundef %0, ptr noundef nonnull @.str.47, i32 noundef %5, ptr noundef nonnull @.str.43) #3
  %16 = getelementptr inbounds nuw i8, ptr %1, i64 64
  %17 = tail call i32 @i2a_ASN1_INTEGER(ptr noundef %0, ptr noundef nonnull %16) #3
  %18 = tail call i32 (ptr, ptr, ...) @BIO_printf(ptr noundef %0, ptr noundef nonnull @.str.38) #3
  ret void
}